; Function Attrs: mustprogress nofree norecurse nosync nounwind willreturn memory(read, inaccessiblemem: none) uwtable
define hidden noundef i32 @_ZNK10ValueStack16total_locks_sizeEv(ptr nocapture noundef nonnull readonly align 8 dereferenceable(81) %0) local_unnamed_addr #2 align 2 {
  br label %2

2:                                                ; preds = %1, %_ZNK10ValueStack10locks_sizeEv.exit
  %.07 = phi ptr [ %0, %1 ], [ %11, %_ZNK10ValueStack10locks_sizeEv.exit ]
  %.056 = phi i32 [ 0, %1 ], [ %9, %_ZNK10ValueStack10locks_sizeEv.exit ]
  %3 = getelementptr inbounds i8, ptr %.07, i64 72
  %4 = load ptr, ptr %3, align 8
  %5 = icmp eq ptr %4, null
  br i1 %5, label %_ZNK10ValueStack10locks_sizeEv.exit, label %6

6:                                                ; preds = %2
  %7 = load i32, ptr %4, align 4
  br label %_ZNK10ValueStack10locks_sizeEv.exit

_ZNK10ValueStack10locks_sizeEv.exit:              ; preds = %2, %6
  %8 = phi i32 [ %7, %6 ], [ 0, %2 ]
  %9 = add nsw i32 %8, %.056
  %10 = getelementptr inbounds i8, ptr %.07, i64 8
  %11 = load ptr, ptr %10, align 8
  %.not = icmp eq ptr %11, null
  br i1 %.not, label %12, label %2, !llvm.loop !20

12:                                               ; preds = %_ZNK10ValueStack10locks_sizeEv.exit
  ret i32 %9
}